; Function Attrs: nounwind uwtable
define dso_local void @GenerationDelete(ptr noundef captures(address) initializes((104, 112)) %0) local_unnamed_addr #0 {
  %2 = getelementptr inbounds nuw i8, ptr %0, i64 104
  store ptr null, ptr %2, align 8
  %3 = getelementptr inbounds nuw i8, ptr %0, i64 112
  %4 = getelementptr inbounds nuw i8, ptr %0, i64 120
  %5 = load ptr, ptr %4, align 8
  %.not.i = icmp eq ptr %5, null
  %.not182124.i = icmp eq ptr %5, %3
  %.not1821.i = select i1 %.not.i, i1 true, i1 %.not182124.i
  br i1 %.not1821.i, label %GenerationReset.exit, label %.lr.ph.i

.lr.ph.i:                                         ; preds = %1
  %6 = getelementptr inbounds nuw i8, ptr %0, i64 128
  %7 = getelementptr inbounds nuw i8, ptr %0, i64 8
  br label %8

8:                                                ; preds = %23, %.lr.ph.i
  %.sroa.0.022.i = phi ptr [ %5, %.lr.ph.i ], [ %.sroa.8.023.i, %23 ]
  %.sroa.8.023.in.i = getelementptr inbounds nuw i8, ptr %.sroa.0.022.i, i64 8
  %.sroa.8.023.i = load ptr, ptr %.sroa.8.023.in.i, align 8
  %9 = icmp eq ptr %.sroa.0.022.i, %6
  br i1 %9, label %10, label %15

10:                                               ; preds = %8
  %11 = getelementptr inbounds nuw i8, ptr %.sroa.0.022.i, i64 32
  store i32 0, ptr %11, align 8
  %12 = getelementptr inbounds nuw i8, ptr %.sroa.0.022.i, i64 36
  store i32 0, ptr %12, align 4
  %13 = getelementptr inbounds nuw i8, ptr %.sroa.0.022.i, i64 56
  %14 = getelementptr inbounds nuw i8, ptr %.sroa.0.022.i, i64 40
  store ptr %13, ptr %14, align 8
  br label %23

15:                                               ; preds = %8
  %16 = load ptr, ptr %.sroa.0.022.i, align 8
  %17 = getelementptr inbounds nuw i8, ptr %16, i64 8
  store ptr %.sroa.8.023.i, ptr %17, align 8
  %18 = load ptr, ptr %.sroa.0.022.i, align 8
  store ptr %18, ptr %.sroa.8.023.i, align 8
  %19 = getelementptr inbounds nuw i8, ptr %.sroa.0.022.i, i64 24
  %20 = load i64, ptr %19, align 8
  %21 = load i64, ptr %7, align 8
  %22 = sub i64 %21, %20
  store i64 %22, ptr %7, align 8
  tail call void @free(ptr noundef nonnull %.sroa.0.022.i) #15
  br label %23

23:                                               ; preds = %15, %10
  %.not18.i = icmp eq ptr %.sroa.8.023.i, %3
  br i1 %.not18.i, label %GenerationReset.exit, label %8, !llvm.loop !6

GenerationReset.exit:                             ; preds = %23, %1
  tail call void @free(ptr noundef %0) #15
  ret void
}